target datalayout = "e-m:e-p270:32:32-p271:32:32-p272:64:64-i64:64-i128:128-f80:128-n8:16:32:64-S128"
target triple = "x86_64-pc-linux-gnu"

%struct.Super2_GateStruct_t_ = type { i32, ptr, ptr, ptr }

@Super2_LibWriteGate_rec.pBuffs1 = internal global [6 x ptr] [ptr @Super2_LibWriteGate_rec.Buff01, ptr @Super2_LibWriteGate_rec.Buff11, ptr @Super2_LibWriteGate_rec.Buff21, ptr @Super2_LibWriteGate_rec.Buff31, ptr @Super2_LibWriteGate_rec.Buff41, ptr @Super2_LibWriteGate_rec.Buff51], align 16
@Super2_LibWriteGate_rec.pBuffs2 = internal global [6 x ptr] [ptr @Super2_LibWriteGate_rec.Buff02, ptr @Super2_LibWriteGate_rec.Buff12, ptr @Super2_LibWriteGate_rec.Buff22, ptr @Super2_LibWriteGate_rec.Buff32, ptr @Super2_LibWriteGate_rec.Buff42, ptr @Super2_LibWriteGate_rec.Buff52], align 16
@.str.14 = private unnamed_addr constant [9 x i8] c"%c%s%s%c\00", align 1
@.str.15 = private unnamed_addr constant [10 x i8] c"Strange!\0A\00", align 1

; Function Attrs: nounwind uwtable
define internal i32 @Super2_LibWriteCompare(ptr noundef %0, ptr noundef %1) #0 {
  %3 = alloca i32, align 4
  %4 = alloca ptr, align 8
  %5 = alloca ptr, align 8
  store ptr %0, ptr %4, align 8, !tbaa !48
  store ptr %1, ptr %5, align 8, !tbaa !48
  br label %6

6:                                                ; preds = %2, %77
  br label %7

7:                                                ; preds = %19, %6
  %8 = load ptr, ptr %4, align 8, !tbaa !48
  %9 = load i8, ptr %8, align 1, !tbaa !56
  %10 = sext i8 %9 to i32
  %11 = icmp ne i32 %10, 0
  br i1 %11, label %12, label %17

12:                                               ; preds = %7
  %13 = load ptr, ptr %4, align 8, !tbaa !48
  %14 = load i8, ptr %13, align 1, !tbaa !56
  %15 = sext i8 %14 to i32
  %16 = icmp slt i32 %15, 65
  br label %17

17:                                               ; preds = %12, %7
  %18 = phi i1 [ false, %7 ], [ %16, %12 ]
  br i1 %18, label %19, label %22

19:                                               ; preds = %17
  %20 = load ptr, ptr %4, align 8, !tbaa !48
  %21 = getelementptr inbounds nuw i8, ptr %20, i32 1
  store ptr %21, ptr %4, align 8, !tbaa !48
  br label %7, !llvm.loop !57

22:                                               ; preds = %17
  br label %23

23:                                               ; preds = %35, %22
  %24 = load ptr, ptr %5, align 8, !tbaa !48
  %25 = load i8, ptr %24, align 1, !tbaa !56
  %26 = sext i8 %25 to i32
  %27 = icmp ne i32 %26, 0
  br i1 %27, label %28, label %33

28:                                               ; preds = %23
  %29 = load ptr, ptr %5, align 8, !tbaa !48
  %30 = load i8, ptr %29, align 1, !tbaa !56
  %31 = sext i8 %30 to i32
  %32 = icmp slt i32 %31, 65
  br label %33

33:                                               ; preds = %28, %23
  %34 = phi i1 [ false, %23 ], [ %32, %28 ]
  br i1 %34, label %35, label %38

35:                                               ; preds = %33
  %36 = load ptr, ptr %5, align 8, !tbaa !48
  %37 = getelementptr inbounds nuw i8, ptr %36, i32 1
  store ptr %37, ptr %5, align 8, !tbaa !48
  br label %23, !llvm.loop !58

38:                                               ; preds = %33
  %39 = load ptr, ptr %4, align 8, !tbaa !48
  %40 = load i8, ptr %39, align 1, !tbaa !56
  %41 = sext i8 %40 to i32
  %42 = icmp eq i32 %41, 0
  br i1 %42, label %48, label %43

43:                                               ; preds = %38
  %44 = load ptr, ptr %5, align 8, !tbaa !48
  %45 = load i8, ptr %44, align 1, !tbaa !56
  %46 = sext i8 %45 to i32
  %47 = icmp eq i32 %46, 0
  br i1 %47, label %48, label %54

48:                                               ; preds = %43, %38
  %49 = load ptr, ptr %5, align 8, !tbaa !48
  %50 = load i8, ptr %49, align 1, !tbaa !56
  %51 = icmp ne i8 %50, 0
  br i1 %51, label %52, label %53

52:                                               ; preds = %48
  store i32 1, ptr %3, align 4
  br label %78

53:                                               ; preds = %48
  store i32 -1, ptr %3, align 4
  br label %78

54:                                               ; preds = %43
  %55 = load ptr, ptr %4, align 8, !tbaa !48
  %56 = load i8, ptr %55, align 1, !tbaa !56
  %57 = sext i8 %56 to i32
  %58 = load ptr, ptr %5, align 8, !tbaa !48
  %59 = load i8, ptr %58, align 1, !tbaa !56
  %60 = sext i8 %59 to i32
  %61 = icmp eq i32 %57, %60
  br i1 %61, label %62, label %67

62:                                               ; preds = %54
  %63 = load ptr, ptr %4, align 8, !tbaa !48
  %64 = getelementptr inbounds nuw i8, ptr %63, i32 1
  store ptr %64, ptr %4, align 8, !tbaa !48
  %65 = load ptr, ptr %5, align 8, !tbaa !48
  %66 = getelementptr inbounds nuw i8, ptr %65, i32 1
  store ptr %66, ptr %5, align 8, !tbaa !48
  br label %77

67:                                               ; preds = %54
  %68 = load ptr, ptr %4, align 8, !tbaa !48
  %69 = load i8, ptr %68, align 1, !tbaa !56
  %70 = sext i8 %69 to i32
  %71 = load ptr, ptr %5, align 8, !tbaa !48
  %72 = load i8, ptr %71, align 1, !tbaa !56
  %73 = sext i8 %72 to i32
  %74 = icmp slt i32 %70, %73
  br i1 %74, label %75, label %76

75:                                               ; preds = %67
  store i32 1, ptr %3, align 4
  br label %78

76:                                               ; preds = %67
  store i32 -1, ptr %3, align 4
  br label %78

77:                                               ; preds = %62
  br label %6

78:                                               ; preds = %76, %75, %53, %52
  %79 = load i32, ptr %3, align 4
  ret i32 %79
}

; Function Attrs: nounwind uwtable
define internal ptr @Super2_LibWriteGate_rec(ptr noundef %0, i32 noundef %1, i32 noundef %2) #0 {
  %4 = alloca ptr, align 8
  %5 = alloca ptr, align 8
  %6 = alloca i32, align 4
  %7 = alloca i32, align 4
  %8 = alloca ptr, align 8
  %9 = alloca ptr, align 8
  %10 = alloca ptr, align 8
  %11 = alloca ptr, align 8
  %12 = alloca ptr, align 8
  %13 = alloca i32, align 4
  %14 = alloca i32, align 4
  %15 = alloca i32, align 4
  %16 = alloca i32, align 4
  store ptr %0, ptr %5, align 8, !tbaa !32
  store i32 %1, ptr %6, align 4, !tbaa !3
  store i32 %2, ptr %7, align 4, !tbaa !3
  call void @llvm.lifetime.start.p0(i64 8, ptr %8) #11
  call void @llvm.lifetime.start.p0(i64 8, ptr %9) #11
  %17 = load i32, ptr %7, align 4, !tbaa !3
  %18 = sext i32 %17 to i64
  %19 = getelementptr inbounds [6 x ptr], ptr @Super2_LibWriteGate_rec.pBuffs1, i64 0, i64 %18
  %20 = load ptr, ptr %19, align 8, !tbaa !48
  store ptr %20, ptr %9, align 8, !tbaa !48
  call void @llvm.lifetime.start.p0(i64 8, ptr %10) #11
  %21 = load i32, ptr %7, align 4, !tbaa !3
  %22 = sext i32 %21 to i64
  %23 = getelementptr inbounds [6 x ptr], ptr @Super2_LibWriteGate_rec.pBuffs2, i64 0, i64 %22
  %24 = load ptr, ptr %23, align 8, !tbaa !48
  store ptr %24, ptr %10, align 8, !tbaa !48
  call void @llvm.lifetime.start.p0(i64 8, ptr %11) #11
  call void @llvm.lifetime.start.p0(i64 8, ptr %12) #11
  call void @llvm.lifetime.start.p0(i64 4, ptr %13) #11
  call void @llvm.lifetime.start.p0(i64 4, ptr %14) #11
  call void @llvm.lifetime.start.p0(i64 4, ptr %15) #11
  %25 = load ptr, ptr %5, align 8, !tbaa !32
  %26 = getelementptr inbounds nuw %struct.Super2_GateStruct_t_, ptr %25, i32 0, i32 1
  %27 = load ptr, ptr %26, align 8, !tbaa !44
  %28 = icmp eq ptr %27, null
  br i1 %28, label %29, label %71

29:                                               ; preds = %3
  %30 = load ptr, ptr %5, align 8, !tbaa !32
  %31 = getelementptr inbounds nuw %struct.Super2_GateStruct_t_, ptr %30, i32 0, i32 0
  %32 = load i32, ptr %31, align 8, !tbaa !37
  %33 = icmp eq i32 %32, 0
  br i1 %33, label %34, label %45

34:                                               ; preds = %29
  %35 = load i32, ptr %6, align 4, !tbaa !3
  %36 = icmp ne i32 %35, 0
  %37 = select i1 %36, i32 49, i32 48
  %38 = trunc i32 %37 to i8
  %39 = load ptr, ptr %9, align 8, !tbaa !48
  %40 = getelementptr inbounds i8, ptr %39, i64 0
  store i8 %38, ptr %40, align 1, !tbaa !56
  %41 = load ptr, ptr %9, align 8, !tbaa !48
  %42 = getelementptr inbounds i8, ptr %41, i64 1
  store i8 36, ptr %42, align 1, !tbaa !56
  %43 = load ptr, ptr %9, align 8, !tbaa !48
  %44 = getelementptr inbounds i8, ptr %43, i64 2
  store i8 0, ptr %44, align 1, !tbaa !56
  br label %69

45:                                               ; preds = %29
  %46 = load i32, ptr %6, align 4, !tbaa !3
  %47 = icmp ne i32 %46, 0
  br i1 %47, label %48, label %55

48:                                               ; preds = %45
  %49 = load ptr, ptr %5, align 8, !tbaa !32
  %50 = getelementptr inbounds nuw %struct.Super2_GateStruct_t_, ptr %49, i32 0, i32 2
  %51 = load ptr, ptr %50, align 8, !tbaa !34
  %52 = ptrtoint ptr %51 to i64
  %53 = trunc i64 %52 to i32
  %54 = add nsw i32 65, %53
  br label %62

55:                                               ; preds = %45
  %56 = load ptr, ptr %5, align 8, !tbaa !32
  %57 = getelementptr inbounds nuw %struct.Super2_GateStruct_t_, ptr %56, i32 0, i32 2
  %58 = load ptr, ptr %57, align 8, !tbaa !34
  %59 = ptrtoint ptr %58 to i64
  %60 = trunc i64 %59 to i32
  %61 = add nsw i32 97, %60
  br label %62

62:                                               ; preds = %55, %48
  %63 = phi i32 [ %54, %48 ], [ %61, %55 ]
  %64 = trunc i32 %63 to i8
  %65 = load ptr, ptr %9, align 8, !tbaa !48
  %66 = getelementptr inbounds i8, ptr %65, i64 0
  store i8 %64, ptr %66, align 1, !tbaa !56
  %67 = load ptr, ptr %9, align 8, !tbaa !48
  %68 = getelementptr inbounds i8, ptr %67, i64 1
  store i8 0, ptr %68, align 1, !tbaa !56
  br label %69

69:                                               ; preds = %62, %34
  %70 = load ptr, ptr %9, align 8, !tbaa !48
  store ptr %70, ptr %4, align 8
  store i32 1, ptr %16, align 4
  br label %176

71:                                               ; preds = %3
  %72 = load ptr, ptr %5, align 8, !tbaa !32
  %73 = getelementptr inbounds nuw %struct.Super2_GateStruct_t_, ptr %72, i32 0, i32 1
  %74 = load ptr, ptr %73, align 8, !tbaa !44
  %75 = ptrtoint ptr %74 to i64
  %76 = and i64 %75, -2
  %77 = inttoptr i64 %76 to ptr
  store ptr %77, ptr %11, align 8, !tbaa !32
  %78 = load ptr, ptr %5, align 8, !tbaa !32
  %79 = getelementptr inbounds nuw %struct.Super2_GateStruct_t_, ptr %78, i32 0, i32 1
  %80 = load ptr, ptr %79, align 8, !tbaa !44
  %81 = ptrtoint ptr %80 to i64
  %82 = and i64 %81, 1
  %83 = trunc i64 %82 to i32
  store i32 %83, ptr %13, align 4, !tbaa !3
  %84 = load ptr, ptr %11, align 8, !tbaa !32
  %85 = load i32, ptr %13, align 4, !tbaa !3
  %86 = load i32, ptr %7, align 4, !tbaa !3
  %87 = sub nsw i32 %86, 1
  %88 = call ptr @Super2_LibWriteGate_rec(ptr noundef %84, i32 noundef %85, i32 noundef %87)
  store ptr %88, ptr %8, align 8, !tbaa !48
  %89 = load ptr, ptr %9, align 8, !tbaa !48
  %90 = load ptr, ptr %8, align 8, !tbaa !48
  %91 = call ptr @strcpy(ptr noundef %89, ptr noundef %90) #11
  %92 = load ptr, ptr %5, align 8, !tbaa !32
  %93 = getelementptr inbounds nuw %struct.Super2_GateStruct_t_, ptr %92, i32 0, i32 2
  %94 = load ptr, ptr %93, align 8, !tbaa !34
  %95 = ptrtoint ptr %94 to i64
  %96 = and i64 %95, -2
  %97 = inttoptr i64 %96 to ptr
  store ptr %97, ptr %12, align 8, !tbaa !32
  %98 = load ptr, ptr %5, align 8, !tbaa !32
  %99 = getelementptr inbounds nuw %struct.Super2_GateStruct_t_, ptr %98, i32 0, i32 2
  %100 = load ptr, ptr %99, align 8, !tbaa !34
  %101 = ptrtoint ptr %100 to i64
  %102 = and i64 %101, 1
  %103 = trunc i64 %102 to i32
  store i32 %103, ptr %14, align 4, !tbaa !3
  %104 = load ptr, ptr %12, align 8, !tbaa !32
  %105 = load i32, ptr %14, align 4, !tbaa !3
  %106 = load i32, ptr %7, align 4, !tbaa !3
  %107 = sub nsw i32 %106, 1
  %108 = call ptr @Super2_LibWriteGate_rec(ptr noundef %104, i32 noundef %105, i32 noundef %107)
  store ptr %108, ptr %8, align 8, !tbaa !48
  %109 = load i32, ptr %13, align 4, !tbaa !3
  %110 = load i32, ptr %14, align 4, !tbaa !3
  %111 = xor i32 %109, %110
  %112 = icmp ne i32 %111, 0
  br i1 %112, label %113, label %140

113:                                              ; preds = %71
  %114 = load i32, ptr %13, align 4, !tbaa !3
  %115 = load i32, ptr %14, align 4, !tbaa !3
  %116 = icmp sgt i32 %114, %115
  br i1 %116, label %117, label %128

117:                                              ; preds = %113
  %118 = load ptr, ptr %10, align 8, !tbaa !48
  %119 = load i32, ptr %6, align 4, !tbaa !3
  %120 = icmp ne i32 %119, 0
  %121 = select i1 %120, i32 60, i32 40
  %122 = load ptr, ptr %9, align 8, !tbaa !48
  %123 = load ptr, ptr %8, align 8, !tbaa !48
  %124 = load i32, ptr %6, align 4, !tbaa !3
  %125 = icmp ne i32 %124, 0
  %126 = select i1 %125, i32 62, i32 41
  %127 = call i32 (ptr, ptr, ...) @sprintf(ptr noundef %118, ptr noundef @.str.14, i32 noundef %121, ptr noundef %122, ptr noundef %123, i32 noundef %126) #11
  br label %139

128:                                              ; preds = %113
  %129 = load ptr, ptr %10, align 8, !tbaa !48
  %130 = load i32, ptr %6, align 4, !tbaa !3
  %131 = icmp ne i32 %130, 0
  %132 = select i1 %131, i32 60, i32 40
  %133 = load ptr, ptr %8, align 8, !tbaa !48
  %134 = load ptr, ptr %9, align 8, !tbaa !48
  %135 = load i32, ptr %6, align 4, !tbaa !3
  %136 = icmp ne i32 %135, 0
  %137 = select i1 %136, i32 62, i32 41
  %138 = call i32 (ptr, ptr, ...) @sprintf(ptr noundef %129, ptr noundef @.str.14, i32 noundef %132, ptr noundef %133, ptr noundef %134, i32 noundef %137) #11
  br label %139

139:                                              ; preds = %128, %117
  br label %174

140:                                              ; preds = %71
  %141 = load ptr, ptr %9, align 8, !tbaa !48
  %142 = load ptr, ptr %8, align 8, !tbaa !48
  %143 = call i32 @Super2_LibWriteCompare(ptr noundef %141, ptr noundef %142)
  store i32 %143, ptr %15, align 4, !tbaa !3
  %144 = load i32, ptr %15, align 4, !tbaa !3
  %145 = icmp eq i32 %144, 1
  br i1 %145, label %146, label %157

146:                                              ; preds = %140
  %147 = load ptr, ptr %10, align 8, !tbaa !48
  %148 = load i32, ptr %6, align 4, !tbaa !3
  %149 = icmp ne i32 %148, 0
  %150 = select i1 %149, i32 60, i32 40
  %151 = load ptr, ptr %9, align 8, !tbaa !48
  %152 = load ptr, ptr %8, align 8, !tbaa !48
  %153 = load i32, ptr %6, align 4, !tbaa !3
  %154 = icmp ne i32 %153, 0
  %155 = select i1 %154, i32 62, i32 41
  %156 = call i32 (ptr, ptr, ...) @sprintf(ptr noundef %147, ptr noundef @.str.14, i32 noundef %150, ptr noundef %151, ptr noundef %152, i32 noundef %155) #11
  br label %173

157:                                              ; preds = %140
  %158 = load ptr, ptr %10, align 8, !tbaa !48
  %159 = load i32, ptr %6, align 4, !tbaa !3
  %160 = icmp ne i32 %159, 0
  %161 = select i1 %160, i32 60, i32 40
  %162 = load ptr, ptr %8, align 8, !tbaa !48
  %163 = load ptr, ptr %9, align 8, !tbaa !48
  %164 = load i32, ptr %6, align 4, !tbaa !3
  %165 = icmp ne i32 %164, 0
  %166 = select i1 %165, i32 62, i32 41
  %167 = call i32 (ptr, ptr, ...) @sprintf(ptr noundef %158, ptr noundef @.str.14, i32 noundef %161, ptr noundef %162, ptr noundef %163, i32 noundef %166) #11
  %168 = load i32, ptr %15, align 4, !tbaa !3
  %169 = icmp eq i32 %168, 0
  br i1 %169, label %170, label %172

170:                                              ; preds = %157
  %171 = call i32 (ptr, ...) @printf(ptr noundef @.str.15)
  br label %172

172:                                              ; preds = %170, %157
  br label %173

173:                                              ; preds = %172, %146
  br label %174

174:                                              ; preds = %173, %139
  %175 = load ptr, ptr %10, align 8, !tbaa !48
  store ptr %175, ptr %4, align 8
  store i32 1, ptr %16, align 4
  br label %176

176:                                              ; preds = %174, %69
  call void @llvm.lifetime.end.p0(i64 4, ptr %15) #11
  call void @llvm.lifetime.end.p0(i64 4, ptr %14) #11
  call void @llvm.lifetime.end.p0(i64 4, ptr %13) #11
  call void @llvm.lifetime.end.p0(i64 8, ptr %12) #11
  call void @llvm.lifetime.end.p0(i64 8, ptr %11) #11
  call void @llvm.lifetime.end.p0(i64 8, ptr %10) #11
  call void @llvm.lifetime.end.p0(i64 8, ptr %9) #11
  call void @llvm.lifetime.end.p0(i64 8, ptr %8) #11
  %177 = load ptr, ptr %4, align 8
  ret ptr %177
}