; Function Attrs: nofree nounwind uwtable
define internal fastcc ptr @Super2_LibWriteGate_rec(ptr noundef readonly captures(none) %0, i32 noundef %1, i32 noundef %2) unnamed_addr #12 {
  %4 = sext i32 %2 to i64
  %5 = getelementptr inbounds [6 x ptr], ptr @Super2_LibWriteGate_rec.pBuffs1, i64 0, i64 %4
  %6 = load ptr, ptr %5, align 8, !tbaa !50
  %7 = getelementptr inbounds [6 x ptr], ptr @Super2_LibWriteGate_rec.pBuffs2, i64 0, i64 %4
  %8 = load ptr, ptr %7, align 8, !tbaa !50
  %9 = getelementptr inbounds nuw i8, ptr %0, i64 8
  %10 = load ptr, ptr %9, align 8, !tbaa !42
  %11 = icmp eq ptr %10, null
  br i1 %11, label %12, label %26

12:                                               ; preds = %3
  %13 = load i32, ptr %0, align 8, !tbaa !22
  %14 = icmp eq i32 %13, 0
  %.not62 = icmp eq i32 %1, 0
  br i1 %14, label %15, label %19

15:                                               ; preds = %12
  %16 = select i1 %.not62, i8 48, i8 49
  store i8 %16, ptr %6, align 1, !tbaa !52
  %17 = getelementptr inbounds nuw i8, ptr %6, i64 1
  store i8 36, ptr %17, align 1, !tbaa !52
  %18 = getelementptr inbounds nuw i8, ptr %6, i64 2
  store i8 0, ptr %18, align 1, !tbaa !52
  br label %71

19:                                               ; preds = %12
  %20 = getelementptr inbounds nuw i8, ptr %0, i64 16
  %21 = load ptr, ptr %20, align 8, !tbaa !27
  %22 = ptrtoint ptr %21 to i64
  %23 = trunc i64 %22 to i8
  %. = select i1 %.not62, i8 97, i8 65
  %24 = add i8 %., %23
  store i8 %24, ptr %6, align 1, !tbaa !52
  %25 = getelementptr inbounds nuw i8, ptr %6, i64 1
  store i8 0, ptr %25, align 1, !tbaa !52
  br label %71

26:                                               ; preds = %3
  %27 = ptrtoint ptr %10 to i64
  %28 = and i64 %27, -2
  %29 = inttoptr i64 %28 to ptr
  %30 = trunc i64 %27 to i32
  %31 = and i32 %30, 1
  %32 = add nsw i32 %2, -1
  %33 = tail call fastcc ptr @Super2_LibWriteGate_rec(ptr noundef %29, i32 noundef %31, i32 noundef %32)
  %34 = tail call ptr @strcpy(ptr noundef nonnull dereferenceable(1) %6, ptr noundef nonnull dereferenceable(1) %33) #20
  %35 = getelementptr inbounds nuw i8, ptr %0, i64 16
  %36 = load ptr, ptr %35, align 8, !tbaa !27
  %37 = ptrtoint ptr %36 to i64
  %38 = and i64 %37, -2
  %39 = inttoptr i64 %38 to ptr
  %40 = trunc i64 %37 to i32
  %41 = and i32 %40, 1
  %42 = tail call fastcc ptr @Super2_LibWriteGate_rec(ptr noundef %39, i32 noundef %41, i32 noundef %32)
  %.not = icmp eq i32 %31, %41
  br i1 %.not, label %.preheader, label %43

43:                                               ; preds = %26
  %44 = icmp samesign ugt i32 %31, %41
  %.not60 = icmp eq i32 %1, 0
  %45 = select i1 %.not60, i32 40, i32 60
  %46 = select i1 %.not60, i32 41, i32 62
  br i1 %44, label %47, label %49

47:                                               ; preds = %43
  %48 = tail call i32 (ptr, ptr, ...) @sprintf(ptr noundef nonnull dereferenceable(1) %8, ptr noundef nonnull dereferenceable(1) @.str.14, i32 noundef %45, ptr noundef nonnull %6, ptr noundef %42, i32 noundef %46) #20
  br label %71

49:                                               ; preds = %43
  %50 = tail call i32 (ptr, ptr, ...) @sprintf(ptr noundef nonnull dereferenceable(1) %8, ptr noundef nonnull dereferenceable(1) @.str.14, i32 noundef %45, ptr noundef %42, ptr noundef nonnull %6, i32 noundef %46) #20
  br label %71

.preheader:                                       ; preds = %26, %61
  %.017.i = phi ptr [ %54, %61 ], [ %6, %26 ]
  %.0.i = phi ptr [ %57, %61 ], [ %42, %26 ]
  br label %51

51:                                               ; preds = %51, %.preheader
  %.118.i = phi ptr [ %.017.i, %.preheader ], [ %54, %51 ]
  %52 = load i8, ptr %.118.i, align 1, !tbaa !52
  %.not.i = icmp ne i8 %52, 0
  %53 = icmp slt i8 %52, 65
  %or.cond.i = and i1 %.not.i, %53
  %54 = getelementptr inbounds nuw i8, ptr %.118.i, i64 1
  br i1 %or.cond.i, label %51, label %.critedge.i, !llvm.loop !53

.critedge.i:                                      ; preds = %51, %.critedge.i
  %.1.i = phi ptr [ %57, %.critedge.i ], [ %.0.i, %51 ]
  %55 = load i8, ptr %.1.i, align 1, !tbaa !52
  %.not24.i = icmp ne i8 %55, 0
  %56 = icmp slt i8 %55, 65
  %or.cond26.i = and i1 %.not24.i, %56
  %57 = getelementptr inbounds nuw i8, ptr %.1.i, i64 1
  br i1 %or.cond26.i, label %.critedge.i, label %.critedge2.i, !llvm.loop !54

.critedge2.i:                                     ; preds = %.critedge.i
  %58 = icmp eq i8 %52, 0
  %59 = icmp eq i8 %55, 0
  %or.cond28.i = or i1 %58, %59
  br i1 %or.cond28.i, label %60, label %61

60:                                               ; preds = %.critedge2.i
  br i1 %59, label %Super2_LibWriteCompare.exit, label %select.unfold63

61:                                               ; preds = %.critedge2.i
  %62 = icmp eq i8 %52, %55
  br i1 %62, label %.preheader, label %63

63:                                               ; preds = %61
  %64 = icmp slt i8 %52, %55
  br i1 %64, label %select.unfold63, label %Super2_LibWriteCompare.exit

select.unfold63:                                  ; preds = %63, %60
  %.not58 = icmp eq i32 %1, 0
  %65 = select i1 %.not58, i32 40, i32 60
  %66 = select i1 %.not58, i32 41, i32 62
  %67 = tail call i32 (ptr, ptr, ...) @sprintf(ptr noundef nonnull dereferenceable(1) %8, ptr noundef nonnull dereferenceable(1) @.str.14, i32 noundef %65, ptr noundef nonnull %6, ptr noundef %42, i32 noundef %66) #20
  br label %71

Super2_LibWriteCompare.exit:                      ; preds = %60, %63
  %.not57 = icmp eq i32 %1, 0
  %68 = select i1 %.not57, i32 40, i32 60
  %69 = select i1 %.not57, i32 41, i32 62
  %70 = tail call i32 (ptr, ptr, ...) @sprintf(ptr noundef nonnull dereferenceable(1) %8, ptr noundef nonnull dereferenceable(1) @.str.14, i32 noundef %68, ptr noundef %42, ptr noundef nonnull %6, i32 noundef %69) #20
  br label %71

71:                                               ; preds = %Super2_LibWriteCompare.exit, %49, %47, %select.unfold63, %15, %19
  %.0 = phi ptr [ %6, %19 ], [ %6, %15 ], [ %8, %select.unfold63 ], [ %8, %Super2_LibWriteCompare.exit ], [ %8, %47 ], [ %8, %49 ]
  ret ptr %.0
}